; Function Attrs: nounwind uwtable
define range(i32 -1094995529, 1) i32 @ff_amf_read_string(ptr noundef captures(none) %0, ptr noundef writeonly captures(none) %1, i32 noundef %2, ptr noundef writeonly captures(none) %3) local_unnamed_addr #5 {
  %5 = getelementptr inbounds nuw i8, ptr %0, i64 8
  %6 = load ptr, ptr %5, align 8, !tbaa !10
  %7 = load ptr, ptr %0, align 8, !tbaa !12
  %8 = ptrtoint ptr %6 to i64
  %9 = ptrtoint ptr %7 to i64
  %10 = sub i64 %8, %9
  %11 = icmp slt i64 %10, 1
  br i1 %11, label %bytestream2_get_byte.exit.thread, label %bytestream2_get_byte.exit

bytestream2_get_byte.exit.thread:                 ; preds = %4
  store ptr %6, ptr %0, align 8, !tbaa !12
  br label %ff_amf_get_string.exit

bytestream2_get_byte.exit:                        ; preds = %4
  %12 = getelementptr inbounds nuw i8, ptr %7, i64 1
  store ptr %12, ptr %0, align 8, !tbaa !4
  %13 = load i8, ptr %7, align 1, !tbaa !9
  %.not = icmp eq i8 %13, 2
  br i1 %.not, label %14, label %ff_amf_get_string.exit

14:                                               ; preds = %bytestream2_get_byte.exit
  %15 = ptrtoint ptr %12 to i64
  %16 = sub i64 %8, %15
  %17 = icmp slt i64 %16, 2
  br i1 %17, label %18, label %19

18:                                               ; preds = %14
  store ptr %6, ptr %0, align 8, !tbaa !12
  br label %bytestream2_get_be16.exit.i

19:                                               ; preds = %14
  %20 = getelementptr inbounds nuw i8, ptr %7, i64 3
  store ptr %20, ptr %0, align 8, !tbaa !4
  %21 = load i16, ptr %12, align 1, !tbaa !9
  %22 = tail call i16 @llvm.bswap.i16(i16 %21)
  %23 = zext i16 %22 to i32
  br label %bytestream2_get_be16.exit.i

bytestream2_get_be16.exit.i:                      ; preds = %19, %18
  %24 = phi ptr [ %6, %18 ], [ %20, %19 ]
  %.0.i.i = phi i32 [ 0, %18 ], [ %23, %19 ]
  %.not.i = icmp slt i32 %.0.i.i, %2
  br i1 %.not.i, label %25, label %ff_amf_get_string.exit

25:                                               ; preds = %bytestream2_get_be16.exit.i
  %26 = ptrtoint ptr %24 to i64
  %27 = sub i64 %8, %26
  %28 = zext nneg i32 %.0.i.i to i64
  %29 = tail call i64 @llvm.smin.i64(i64 %27, i64 %28)
  %30 = trunc i64 %29 to i32
  %31 = and i64 %29, 4294967295
  tail call void @llvm.memcpy.p0.p0.i64(ptr align 1 %1, ptr align 1 %24, i64 %31, i1 false)
  %32 = load ptr, ptr %0, align 8, !tbaa !12
  %33 = getelementptr inbounds nuw i8, ptr %32, i64 %31
  store ptr %33, ptr %0, align 8, !tbaa !12
  %.not15.i = icmp eq i32 %.0.i.i, %30
  br i1 %.not15.i, label %35, label %34

34:                                               ; preds = %25
  tail call void (ptr, i32, ptr, ...) @av_log(ptr noundef null, i32 noundef 24, ptr noundef nonnull @.str) #16
  br label %35

35:                                               ; preds = %34, %25
  %sext.i = shl i64 %29, 32
  %36 = ashr exact i64 %sext.i, 32
  %37 = getelementptr inbounds i8, ptr %1, i64 %36
  store i8 0, ptr %37, align 1, !tbaa !9
  %38 = tail call i32 @llvm.smin.i32(i32 %.0.i.i, i32 %30)
  store i32 %38, ptr %3, align 4, !tbaa !15
  br label %ff_amf_get_string.exit

ff_amf_get_string.exit:                           ; preds = %35, %bytestream2_get_be16.exit.i, %bytestream2_get_byte.exit.thread, %bytestream2_get_byte.exit
  %.0 = phi i32 [ -1094995529, %bytestream2_get_byte.exit ], [ -1094995529, %bytestream2_get_byte.exit.thread ], [ 0, %35 ], [ -22, %bytestream2_get_be16.exit.i ]
  ret i32 %.0
}